target datalayout = "e-m:e-p270:32:32-p271:32:32-p272:64:64-i64:64-i128:128-f80:128-n8:16:32:64-S128"
target triple = "x86_64-pc-linux-gnu"

%struct.Abc_Ntk_t_ = type { i32, i32, ptr, ptr, ptr, ptr, ptr, ptr, ptr, ptr, ptr, ptr, ptr, [11 x i32], i32, i32, i32, i32, ptr, i32, ptr, ptr, i32, i32, i32, double, i32, %struct.Vec_Int_t_, ptr, ptr, ptr, ptr, ptr, float, i32, ptr, ptr, ptr, ptr, ptr, ptr, ptr, ptr, ptr, ptr, ptr, ptr, ptr, ptr, ptr, ptr, ptr, ptr, ptr, ptr, ptr, ptr }
%struct.Vec_Int_t_ = type { i32, i32, ptr }
%struct.Vec_Ptr_t_ = type { i32, i32, ptr }
%struct.Abc_Obj_t_ = type { ptr, ptr, i32, i32, %struct.Vec_Int_t_, %struct.Vec_Int_t_, %union.anon, %union.anon.0 }
%union.anon = type { ptr }
%union.anon.0 = type { ptr }

@Io_NtkEdgelistWriteNodeGate.fReport = internal global i32 0, align 4
@.str.19 = private unnamed_addr constant [4 x i8] c"%s \00", align 1
@.str.20 = private unnamed_addr constant [4 x i8] c"%d \00", align 1
@.str.21 = private unnamed_addr constant [3 x i8] c"%s\00", align 1
@.str.22 = private unnamed_addr constant [3 x i8] c"%d\00", align 1
@.str.23 = private unnamed_addr constant [4 x i8] c" %s\00", align 1
@.str.24 = private unnamed_addr constant [5 x i8] c" %lu\00", align 1
@.str.25 = private unnamed_addr constant [49 x i8] c"Warning: Missing second output of gate(s) \22%s\22.\0A\00", align 1

; Function Attrs: inlinehint nounwind uwtable
define internal ptr @Abc_ObjFanout0(ptr noundef %0) #4 {
  %2 = alloca ptr, align 8
  store ptr %0, ptr %2, align 8, !tbaa !41
  %3 = load ptr, ptr %2, align 8, !tbaa !41
  %4 = getelementptr inbounds nuw %struct.Abc_Obj_t_, ptr %3, i32 0, i32 0
  %5 = load ptr, ptr %4, align 8, !tbaa !57
  %6 = getelementptr inbounds nuw %struct.Abc_Ntk_t_, ptr %5, i32 0, i32 5
  %7 = load ptr, ptr %6, align 8, !tbaa !49
  %8 = getelementptr inbounds nuw %struct.Vec_Ptr_t_, ptr %7, i32 0, i32 2
  %9 = load ptr, ptr %8, align 8, !tbaa !38
  %10 = load ptr, ptr %2, align 8, !tbaa !41
  %11 = getelementptr inbounds nuw %struct.Abc_Obj_t_, ptr %10, i32 0, i32 5
  %12 = getelementptr inbounds nuw %struct.Vec_Int_t_, ptr %11, i32 0, i32 2
  %13 = load ptr, ptr %12, align 8, !tbaa !69
  %14 = getelementptr inbounds i32, ptr %13, i64 0
  %15 = load i32, ptr %14, align 4, !tbaa !10
  %16 = sext i32 %15 to i64
  %17 = getelementptr inbounds ptr, ptr %9, i64 %16
  %18 = load ptr, ptr %17, align 8, !tbaa !39
  ret ptr %18
}

; Function Attrs: inlinehint nounwind uwtable
define internal i32 @Abc_ObjId(ptr noundef %0) #4 {
  %2 = alloca ptr, align 8
  store ptr %0, ptr %2, align 8, !tbaa !41
  %3 = load ptr, ptr %2, align 8, !tbaa !41
  %4 = getelementptr inbounds nuw %struct.Abc_Obj_t_, ptr %3, i32 0, i32 2
  %5 = load i32, ptr %4, align 8, !tbaa !70
  ret i32 %5
}

; Function Attrs: inlinehint nounwind uwtable
define internal ptr @Abc_ObjFanin(ptr noundef %0, i32 noundef %1) #4 {
  %3 = alloca ptr, align 8
  %4 = alloca i32, align 4
  store ptr %0, ptr %3, align 8, !tbaa !41
  store i32 %1, ptr %4, align 4, !tbaa !10
  %5 = load ptr, ptr %3, align 8, !tbaa !41
  %6 = getelementptr inbounds nuw %struct.Abc_Obj_t_, ptr %5, i32 0, i32 0
  %7 = load ptr, ptr %6, align 8, !tbaa !57
  %8 = getelementptr inbounds nuw %struct.Abc_Ntk_t_, ptr %7, i32 0, i32 5
  %9 = load ptr, ptr %8, align 8, !tbaa !49
  %10 = getelementptr inbounds nuw %struct.Vec_Ptr_t_, ptr %9, i32 0, i32 2
  %11 = load ptr, ptr %10, align 8, !tbaa !38
  %12 = load ptr, ptr %3, align 8, !tbaa !41
  %13 = getelementptr inbounds nuw %struct.Abc_Obj_t_, ptr %12, i32 0, i32 4
  %14 = getelementptr inbounds nuw %struct.Vec_Int_t_, ptr %13, i32 0, i32 2
  %15 = load ptr, ptr %14, align 8, !tbaa !59
  %16 = load i32, ptr %4, align 4, !tbaa !10
  %17 = sext i32 %16 to i64
  %18 = getelementptr inbounds i32, ptr %15, i64 %17
  %19 = load i32, ptr %18, align 4, !tbaa !10
  %20 = sext i32 %19 to i64
  %21 = getelementptr inbounds ptr, ptr %11, i64 %20
  %22 = load ptr, ptr %21, align 8, !tbaa !39
  ret ptr %22
}

; Function Attrs: nounwind uwtable
define i32 @Io_NtkEdgelistWriteNodeGate(ptr noundef %0, ptr noundef %1, i32 noundef %2, i32 noundef %3) #0 {
  %5 = alloca i32, align 4
  %6 = alloca ptr, align 8
  %7 = alloca ptr, align 8
  %8 = alloca i32, align 4
  %9 = alloca i32, align 4
  %10 = alloca ptr, align 8
  %11 = alloca ptr, align 8
  %12 = alloca ptr, align 8
  %13 = alloca i32, align 4
  %14 = alloca i32, align 4
  store ptr %0, ptr %6, align 8, !tbaa !12
  store ptr %1, ptr %7, align 8, !tbaa !41
  store i32 %2, ptr %8, align 4, !tbaa !10
  store i32 %3, ptr %9, align 4, !tbaa !10
  call void @llvm.lifetime.start.p0(i64 8, ptr %10) #8
  %15 = load ptr, ptr %7, align 8, !tbaa !41
  %16 = getelementptr inbounds nuw %struct.Abc_Obj_t_, ptr %15, i32 0, i32 6
  %17 = load ptr, ptr %16, align 8, !tbaa !72
  store ptr %17, ptr %10, align 8, !tbaa !73
  call void @llvm.lifetime.start.p0(i64 8, ptr %11) #8
  call void @llvm.lifetime.start.p0(i64 8, ptr %12) #8
  call void @llvm.lifetime.start.p0(i64 4, ptr %13) #8
  %18 = load ptr, ptr %10, align 8, !tbaa !73
  %19 = call ptr @Mio_GateReadPins(ptr noundef %18)
  store ptr %19, ptr %11, align 8, !tbaa !75
  store i32 0, ptr %13, align 4, !tbaa !10
  br label %20

20:                                               ; preds = %41, %4
  %21 = load ptr, ptr %11, align 8, !tbaa !75
  %22 = icmp ne ptr %21, null
  br i1 %22, label %23, label %46

23:                                               ; preds = %20
  %24 = load i32, ptr %9, align 4, !tbaa !10
  %25 = icmp ne i32 %24, 0
  br i1 %25, label %26, label %33

26:                                               ; preds = %23
  %27 = load ptr, ptr %6, align 8, !tbaa !12
  %28 = load ptr, ptr %7, align 8, !tbaa !41
  %29 = load i32, ptr %13, align 4, !tbaa !10
  %30 = call ptr @Abc_ObjFanin(ptr noundef %28, i32 noundef %29)
  %31 = call ptr @Abc_ObjName(ptr noundef %30)
  %32 = call i32 (ptr, ptr, ...) @fprintf(ptr noundef %27, ptr noundef @.str.19, ptr noundef %31) #8
  br label %40

33:                                               ; preds = %23
  %34 = load ptr, ptr %6, align 8, !tbaa !12
  %35 = load ptr, ptr %7, align 8, !tbaa !41
  %36 = load i32, ptr %13, align 4, !tbaa !10
  %37 = call ptr @Abc_ObjFanin(ptr noundef %35, i32 noundef %36)
  %38 = call i32 @Abc_ObjId(ptr noundef %37)
  %39 = call i32 (ptr, ptr, ...) @fprintf(ptr noundef %34, ptr noundef @.str.20, i32 noundef %38) #8
  br label %40

40:                                               ; preds = %33, %26
  br label %41

41:                                               ; preds = %40
  %42 = load ptr, ptr %11, align 8, !tbaa !75
  %43 = call ptr @Mio_PinReadNext(ptr noundef %42)
  store ptr %43, ptr %11, align 8, !tbaa !75
  %44 = load i32, ptr %13, align 4, !tbaa !10
  %45 = add nsw i32 %44, 1
  store i32 %45, ptr %13, align 4, !tbaa !10
  br label %20, !llvm.loop !77

46:                                               ; preds = %20
  %47 = load i32, ptr %9, align 4, !tbaa !10
  %48 = icmp ne i32 %47, 0
  br i1 %48, label %49, label %55

49:                                               ; preds = %46
  %50 = load ptr, ptr %6, align 8, !tbaa !12
  %51 = load ptr, ptr %7, align 8, !tbaa !41
  %52 = call ptr @Abc_ObjFanout0(ptr noundef %51)
  %53 = call ptr @Abc_ObjName(ptr noundef %52)
  %54 = call i32 (ptr, ptr, ...) @fprintf(ptr noundef %50, ptr noundef @.str.21, ptr noundef %53) #8
  br label %61

55:                                               ; preds = %46
  %56 = load ptr, ptr %6, align 8, !tbaa !12
  %57 = load ptr, ptr %7, align 8, !tbaa !41
  %58 = call ptr @Abc_ObjFanout0(ptr noundef %57)
  %59 = call i32 @Abc_ObjId(ptr noundef %58)
  %60 = call i32 (ptr, ptr, ...) @fprintf(ptr noundef %56, ptr noundef @.str.22, i32 noundef %59) #8
  br label %61

61:                                               ; preds = %55, %49
  %62 = load ptr, ptr %10, align 8, !tbaa !73
  %63 = call ptr @Mio_GateReadTwin(ptr noundef %62)
  %64 = icmp eq ptr %63, null
  br i1 %64, label %65, label %74

65:                                               ; preds = %61
  %66 = load ptr, ptr %6, align 8, !tbaa !12
  %67 = load ptr, ptr %10, align 8, !tbaa !73
  %68 = call ptr @Mio_GateReadName(ptr noundef %67)
  %69 = call i32 (ptr, ptr, ...) @fprintf(ptr noundef %66, ptr noundef @.str.23, ptr noundef %68) #8
  %70 = load ptr, ptr %6, align 8, !tbaa !12
  %71 = load ptr, ptr %10, align 8, !tbaa !73
  %72 = call i64 @Mio_GateReadTruth(ptr noundef %71)
  %73 = call i32 (ptr, ptr, ...) @fprintf(ptr noundef %70, ptr noundef @.str.24, i64 noundef %72) #8
  store i32 0, ptr %5, align 4
  store i32 1, ptr %14, align 4
  br label %101

74:                                               ; preds = %61
  %75 = load ptr, ptr %7, align 8, !tbaa !41
  %76 = call ptr @Abc_NtkFetchTwinNode(ptr noundef %75)
  store ptr %76, ptr %12, align 8, !tbaa !41
  %77 = load ptr, ptr %12, align 8, !tbaa !41
  %78 = icmp eq ptr %77, null
  br i1 %78, label %79, label %87

79:                                               ; preds = %74
  %80 = load i32, ptr @Io_NtkEdgelistWriteNodeGate.fReport, align 4, !tbaa !10
  %81 = icmp ne i32 %80, 0
  br i1 %81, label %86, label %82

82:                                               ; preds = %79
  store i32 1, ptr @Io_NtkEdgelistWriteNodeGate.fReport, align 4, !tbaa !10
  %83 = load ptr, ptr %10, align 8, !tbaa !73
  %84 = call ptr @Mio_GateReadName(ptr noundef %83)
  %85 = call i32 (ptr, ...) @printf(ptr noundef @.str.25, ptr noundef %84)
  br label %86

86:                                               ; preds = %82, %79
  store i32 0, ptr %5, align 4
  store i32 1, ptr %14, align 4
  br label %101

87:                                               ; preds = %74
  %88 = load ptr, ptr %6, align 8, !tbaa !12
  %89 = load ptr, ptr %12, align 8, !tbaa !41
  %90 = call ptr @Abc_ObjFanout0(ptr noundef %89)
  %91 = call ptr @Abc_ObjName(ptr noundef %90)
  %92 = call i32 (ptr, ptr, ...) @fprintf(ptr noundef %88, ptr noundef @.str.23, ptr noundef %91) #8
  %93 = load ptr, ptr %6, align 8, !tbaa !12
  %94 = load ptr, ptr %10, align 8, !tbaa !73
  %95 = call ptr @Mio_GateReadName(ptr noundef %94)
  %96 = call i32 (ptr, ptr, ...) @fprintf(ptr noundef %93, ptr noundef @.str.23, ptr noundef %95) #8
  %97 = load ptr, ptr %6, align 8, !tbaa !12
  %98 = load ptr, ptr %10, align 8, !tbaa !73
  %99 = call i64 @Mio_GateReadTruth(ptr noundef %98)
  %100 = call i32 (ptr, ptr, ...) @fprintf(ptr noundef %97, ptr noundef @.str.24, i64 noundef %99) #8
  store i32 1, ptr %5, align 4
  store i32 1, ptr %14, align 4
  br label %101

101:                                              ; preds = %87, %86, %65
  call void @llvm.lifetime.end.p0(i64 4, ptr %13) #8
  call void @llvm.lifetime.end.p0(i64 8, ptr %12) #8
  call void @llvm.lifetime.end.p0(i64 8, ptr %11) #8
  call void @llvm.lifetime.end.p0(i64 8, ptr %10) #8
  %102 = load i32, ptr %5, align 4
  ret i32 %102
}