; Function Attrs: nounwind uwtable
define range(i32 0, 2) i32 @Io_NtkEdgelistWriteNodeGate(ptr noundef captures(none) %0, ptr noundef %1, i32 %2, i32 noundef %3) local_unnamed_addr #0 {
  %5 = getelementptr inbounds nuw i8, ptr %1, i64 56
  %6 = load ptr, ptr %5, align 8, !tbaa !52
  %7 = tail call ptr @Mio_GateReadPins(ptr noundef %6) #11
  %.not47 = icmp eq ptr %7, null
  br i1 %.not47, label %._crit_edge, label %.lr.ph

.lr.ph:                                           ; preds = %4
  %.not35 = icmp eq i32 %3, 0
  %8 = getelementptr i8, ptr %1, i64 32
  br i1 %.not35, label %.lr.ph.split.us, label %.lr.ph.split

.lr.ph.split.us:                                  ; preds = %.lr.ph, %.lr.ph.split.us
  %indvars.iv52 = phi i64 [ %indvars.iv.next53, %.lr.ph.split.us ], [ 0, %.lr.ph ]
  %.03248.us = phi ptr [ %18, %.lr.ph.split.us ], [ %7, %.lr.ph ]
  %.val43.us = load ptr, ptr %1, align 8, !tbaa !41
  %.val44.us = load ptr, ptr %8, align 8, !tbaa !51
  %9 = getelementptr i8, ptr %.val43.us, i64 32
  %.val43.val.us = load ptr, ptr %9, align 8, !tbaa !45
  %10 = getelementptr i8, ptr %.val43.val.us, i64 8
  %.val43.val.val.us = load ptr, ptr %10, align 8, !tbaa !33
  %11 = getelementptr inbounds nuw i32, ptr %.val44.us, i64 %indvars.iv52
  %12 = load i32, ptr %11, align 4, !tbaa !26
  %13 = sext i32 %12 to i64
  %14 = getelementptr inbounds ptr, ptr %.val43.val.val.us, i64 %13
  %15 = load ptr, ptr %14, align 8, !tbaa !34
  %16 = getelementptr i8, ptr %15, i64 16
  %.val42.us = load i32, ptr %16, align 8, !tbaa !46
  %17 = tail call i32 (ptr, ptr, ...) @fprintf(ptr noundef %0, ptr noundef nonnull @.str.20, i32 noundef %.val42.us) #11
  %18 = tail call ptr @Mio_PinReadNext(ptr noundef nonnull %.03248.us) #11
  %indvars.iv.next53 = add nuw nsw i64 %indvars.iv52, 1
  %.not.us = icmp eq ptr %18, null
  br i1 %.not.us, label %._crit_edge, label %.lr.ph.split.us, !llvm.loop !72

.lr.ph.split:                                     ; preds = %.lr.ph, %.lr.ph.split
  %indvars.iv = phi i64 [ %indvars.iv.next, %.lr.ph.split ], [ 0, %.lr.ph ]
  %.03248 = phi ptr [ %28, %.lr.ph.split ], [ %7, %.lr.ph ]
  %.val45 = load ptr, ptr %1, align 8, !tbaa !41
  %.val46 = load ptr, ptr %8, align 8, !tbaa !51
  %19 = getelementptr i8, ptr %.val45, i64 32
  %.val45.val = load ptr, ptr %19, align 8, !tbaa !45
  %20 = getelementptr i8, ptr %.val45.val, i64 8
  %.val45.val.val = load ptr, ptr %20, align 8, !tbaa !33
  %21 = getelementptr inbounds nuw i32, ptr %.val46, i64 %indvars.iv
  %22 = load i32, ptr %21, align 4, !tbaa !26
  %23 = sext i32 %22 to i64
  %24 = getelementptr inbounds ptr, ptr %.val45.val.val, i64 %23
  %25 = load ptr, ptr %24, align 8, !tbaa !34
  %26 = tail call ptr @Abc_ObjName(ptr noundef %25) #11
  %27 = tail call i32 (ptr, ptr, ...) @fprintf(ptr noundef %0, ptr noundef nonnull @.str.19, ptr noundef %26) #11
  %28 = tail call ptr @Mio_PinReadNext(ptr noundef nonnull %.03248) #11
  %indvars.iv.next = add nuw nsw i64 %indvars.iv, 1
  %.not = icmp eq ptr %28, null
  br i1 %.not, label %._crit_edge, label %.lr.ph.split, !llvm.loop !72

._crit_edge:                                      ; preds = %.lr.ph.split, %.lr.ph.split.us, %4
  %.not34 = icmp eq i32 %3, 0
  %.val37 = load ptr, ptr %1, align 8, !tbaa !41
  %29 = getelementptr i8, ptr %1, i64 48
  %.val38 = load ptr, ptr %29, align 8, !tbaa !44
  %30 = getelementptr i8, ptr %.val37, i64 32
  %.val37.val = load ptr, ptr %30, align 8, !tbaa !45
  %.val38.val = load i32, ptr %.val38, align 4, !tbaa !26
  %31 = getelementptr i8, ptr %.val37.val, i64 8
  %.val37.val.val = load ptr, ptr %31, align 8, !tbaa !33
  %32 = sext i32 %.val38.val to i64
  %33 = getelementptr inbounds ptr, ptr %.val37.val.val, i64 %32
  %34 = load ptr, ptr %33, align 8, !tbaa !34
  br i1 %.not34, label %37, label %35

35:                                               ; preds = %._crit_edge
  %36 = tail call ptr @Abc_ObjName(ptr noundef %34) #11
  %fputs = tail call i32 @fputs(ptr %36, ptr %0)
  br label %40

37:                                               ; preds = %._crit_edge
  %38 = getelementptr i8, ptr %34, i64 16
  %.val41 = load i32, ptr %38, align 8, !tbaa !46
  %39 = tail call i32 (ptr, ptr, ...) @fprintf(ptr noundef %0, ptr noundef nonnull @.str.22, i32 noundef %.val41) #11
  br label %40

40:                                               ; preds = %37, %35
  %41 = tail call ptr @Mio_GateReadTwin(ptr noundef %6) #11
  %42 = icmp eq ptr %41, null
  br i1 %42, label %43, label %48

43:                                               ; preds = %40
  %44 = tail call ptr @Mio_GateReadName(ptr noundef %6) #11
  %45 = tail call i32 (ptr, ptr, ...) @fprintf(ptr noundef %0, ptr noundef nonnull @.str.23, ptr noundef %44) #11
  %46 = tail call i64 @Mio_GateReadTruth(ptr noundef %6) #11
  %47 = tail call i32 (ptr, ptr, ...) @fprintf(ptr noundef %0, ptr noundef nonnull @.str.24, i64 noundef %46) #11
  br label %68

48:                                               ; preds = %40
  %49 = tail call ptr @Abc_NtkFetchTwinNode(ptr noundef nonnull %1) #11
  %50 = icmp eq ptr %49, null
  br i1 %50, label %51, label %55

51:                                               ; preds = %48
  %.b = load i1, ptr @Io_NtkEdgelistWriteNodeGate.fReport, align 4
  br i1 %.b, label %68, label %52

52:                                               ; preds = %51
  store i1 true, ptr @Io_NtkEdgelistWriteNodeGate.fReport, align 4
  %53 = tail call ptr @Mio_GateReadName(ptr noundef %6) #11
  %54 = tail call i32 (ptr, ...) @printf(ptr noundef nonnull dereferenceable(1) @.str.25, ptr noundef %53)
  br label %68

55:                                               ; preds = %48
  %.val = load ptr, ptr %49, align 8, !tbaa !41
  %56 = getelementptr i8, ptr %49, i64 48
  %.val36 = load ptr, ptr %56, align 8, !tbaa !44
  %57 = getelementptr i8, ptr %.val, i64 32
  %.val.val = load ptr, ptr %57, align 8, !tbaa !45
  %.val36.val = load i32, ptr %.val36, align 4, !tbaa !26
  %58 = getelementptr i8, ptr %.val.val, i64 8
  %.val.val.val = load ptr, ptr %58, align 8, !tbaa !33
  %59 = sext i32 %.val36.val to i64
  %60 = getelementptr inbounds ptr, ptr %.val.val.val, i64 %59
  %61 = load ptr, ptr %60, align 8, !tbaa !34
  %62 = tail call ptr @Abc_ObjName(ptr noundef %61) #11
  %63 = tail call i32 (ptr, ptr, ...) @fprintf(ptr noundef %0, ptr noundef nonnull @.str.23, ptr noundef %62) #11
  %64 = tail call ptr @Mio_GateReadName(ptr noundef %6) #11
  %65 = tail call i32 (ptr, ptr, ...) @fprintf(ptr noundef %0, ptr noundef nonnull @.str.23, ptr noundef %64) #11
  %66 = tail call i64 @Mio_GateReadTruth(ptr noundef %6) #11
  %67 = tail call i32 (ptr, ptr, ...) @fprintf(ptr noundef %0, ptr noundef nonnull @.str.24, i64 noundef %66) #11
  br label %68

68:                                               ; preds = %51, %52, %55, %43
  %.031 = phi i32 [ 0, %43 ], [ 1, %55 ], [ 0, %52 ], [ 0, %51 ]
  ret i32 %.031
}